target datalayout = "e-m:e-p270:32:32-p271:32:32-p272:64:64-i64:64-i128:128-f80:128-n8:16:32:64-S128"
target triple = "x86_64-pc-linux-gnu"

%struct.PayloadContext = type { i32, i32, ptr, ptr, i32, i32, i32, i32 }
%struct.AVRational = type { i32, i32 }
%struct.AVCodecParameters = type { i32, i32, i32, ptr, i32, ptr, i32, i32, i64, i32, i32, i32, i32, i32, i32, %struct.AVRational, %struct.AVRational, i32, i32, i32, i32, i32, i32, i32, %struct.AVChannelLayout, i32, i32, i32, i32, i32, i32 }
%struct.AVChannelLayout = type { i32, i32, %union.anon, ptr }
%union.anon = type { i64 }

@.str.15 = private unnamed_addr constant [32 x i8] c"Invalid %td byte packed header.\00", align 1
@.str.16 = private unnamed_addr constant [30 x i8] c"%u packed headers, %u headers\00", align 1
@.str.17 = private unnamed_addr constant [42 x i8] c"Bad packed header lengths (%d,%d,%td,%u)\0A\00", align 1
@.str.18 = private unnamed_addr constant [15 x i8] c"Out of memory\0A\00", align 1

; Function Attrs: alwaysinline nounwind willreturn memory(none) uwtable
define internal zeroext i16 @av_bswap16(i16 noundef zeroext %0) #9 {
  %2 = alloca i16, align 2
  store i16 %0, ptr %2, align 2, !tbaa !36
  %3 = load i16, ptr %2, align 2, !tbaa !36
  %4 = zext i16 %3 to i32
  %5 = ashr i32 %4, 8
  %6 = load i16, ptr %2, align 2, !tbaa !36
  %7 = zext i16 %6 to i32
  %8 = shl i32 %7, 8
  %9 = or i32 %5, %8
  %10 = trunc i32 %9 to i16
  store i16 %10, ptr %2, align 2, !tbaa !36
  %11 = load i16, ptr %2, align 2, !tbaa !36
  ret i16 %11
}

; Function Attrs: alwaysinline nounwind willreturn memory(none) uwtable
define internal i32 @av_bswap32(i32 noundef %0) #9 {
  %2 = alloca i32, align 4
  store i32 %0, ptr %2, align 4, !tbaa !9
  %3 = load i32, ptr %2, align 4, !tbaa !9
  %4 = shl i32 %3, 8
  %5 = and i32 %4, 65280
  %6 = load i32, ptr %2, align 4, !tbaa !9
  %7 = lshr i32 %6, 8
  %8 = and i32 %7, 255
  %9 = or i32 %5, %8
  %10 = shl i32 %9, 16
  %11 = load i32, ptr %2, align 4, !tbaa !9
  %12 = lshr i32 %11, 16
  %13 = shl i32 %12, 8
  %14 = and i32 %13, 65280
  %15 = load i32, ptr %2, align 4, !tbaa !9
  %16 = lshr i32 %15, 16
  %17 = lshr i32 %16, 8
  %18 = and i32 %17, 255
  %19 = or i32 %14, %18
  %20 = or i32 %10, %19
  ret i32 %20
}

; Function Attrs: nounwind uwtable
define internal i32 @get_base128(ptr noundef %0, ptr noundef %1) #0 {
  %3 = alloca i32, align 4
  %4 = alloca ptr, align 8
  %5 = alloca ptr, align 8
  %6 = alloca i32, align 4
  %7 = alloca i32, align 4
  store ptr %0, ptr %4, align 8, !tbaa !67
  store ptr %1, ptr %5, align 8, !tbaa !13
  call void @llvm.lifetime.start.p0(i64 4, ptr %6) #10
  store i32 0, ptr %6, align 4, !tbaa !9
  br label %8

8:                                                ; preds = %35, %2
  %9 = load ptr, ptr %4, align 8, !tbaa !67
  %10 = load ptr, ptr %9, align 8, !tbaa !13
  %11 = load ptr, ptr %5, align 8, !tbaa !13
  %12 = icmp ult ptr %10, %11
  br i1 %12, label %13, label %39

13:                                               ; preds = %8
  %14 = load i32, ptr %6, align 4, !tbaa !9
  %15 = shl i32 %14, 7
  store i32 %15, ptr %6, align 4, !tbaa !9
  %16 = load ptr, ptr %4, align 8, !tbaa !67
  %17 = load ptr, ptr %16, align 8, !tbaa !13
  %18 = load i8, ptr %17, align 1, !tbaa !43
  %19 = zext i8 %18 to i32
  %20 = and i32 %19, 127
  %21 = load i32, ptr %6, align 4, !tbaa !9
  %22 = add nsw i32 %21, %20
  store i32 %22, ptr %6, align 4, !tbaa !9
  %23 = load ptr, ptr %4, align 8, !tbaa !67
  %24 = load ptr, ptr %23, align 8, !tbaa !13
  %25 = load i8, ptr %24, align 1, !tbaa !43
  %26 = zext i8 %25 to i32
  %27 = and i32 %26, 128
  %28 = icmp ne i32 %27, 0
  br i1 %28, label %34, label %29

29:                                               ; preds = %13
  %30 = load ptr, ptr %4, align 8, !tbaa !67
  %31 = load ptr, ptr %30, align 8, !tbaa !13
  %32 = getelementptr inbounds nuw i8, ptr %31, i32 1
  store ptr %32, ptr %30, align 8, !tbaa !13
  %33 = load i32, ptr %6, align 4, !tbaa !9
  store i32 %33, ptr %3, align 4
  store i32 1, ptr %7, align 4
  br label %40

34:                                               ; preds = %13
  br label %35

35:                                               ; preds = %34
  %36 = load ptr, ptr %4, align 8, !tbaa !67
  %37 = load ptr, ptr %36, align 8, !tbaa !13
  %38 = getelementptr inbounds nuw i8, ptr %37, i32 1
  store ptr %38, ptr %36, align 8, !tbaa !13
  br label %8, !llvm.loop !69

39:                                               ; preds = %8
  store i32 0, ptr %3, align 4
  store i32 1, ptr %7, align 4
  br label %40

40:                                               ; preds = %39, %29
  call void @llvm.lifetime.end.p0(i64 4, ptr %6) #10
  %41 = load i32, ptr %3, align 4
  ret i32 %41
}

; Function Attrs: alwaysinline nounwind uwtable
define internal i32 @bytestream_get_be16(ptr noundef %0) #6 {
  %2 = alloca ptr, align 8
  store ptr %0, ptr %2, align 8, !tbaa !67
  %3 = load ptr, ptr %2, align 8, !tbaa !67
  %4 = load ptr, ptr %3, align 8, !tbaa !13
  %5 = getelementptr inbounds i8, ptr %4, i64 2
  store ptr %5, ptr %3, align 8, !tbaa !13
  %6 = load ptr, ptr %2, align 8, !tbaa !67
  %7 = load ptr, ptr %6, align 8, !tbaa !13
  %8 = getelementptr inbounds i8, ptr %7, i64 -2
  %9 = load i16, ptr %8, align 1, !tbaa !43
  %10 = call zeroext i16 @av_bswap16(i16 noundef zeroext %9) #11
  %11 = zext i16 %10 to i32
  ret i32 %11
}

; Function Attrs: alwaysinline nounwind uwtable
define internal i32 @bytestream_get_be24(ptr noundef %0) #6 {
  %2 = alloca ptr, align 8
  store ptr %0, ptr %2, align 8, !tbaa !67
  %3 = load ptr, ptr %2, align 8, !tbaa !67
  %4 = load ptr, ptr %3, align 8, !tbaa !13
  %5 = getelementptr inbounds i8, ptr %4, i64 3
  store ptr %5, ptr %3, align 8, !tbaa !13
  %6 = load ptr, ptr %2, align 8, !tbaa !67
  %7 = load ptr, ptr %6, align 8, !tbaa !13
  %8 = getelementptr inbounds i8, ptr %7, i64 -3
  %9 = getelementptr inbounds i8, ptr %8, i64 0
  %10 = load i8, ptr %9, align 1, !tbaa !43
  %11 = zext i8 %10 to i32
  %12 = shl i32 %11, 16
  %13 = load ptr, ptr %2, align 8, !tbaa !67
  %14 = load ptr, ptr %13, align 8, !tbaa !13
  %15 = getelementptr inbounds i8, ptr %14, i64 -3
  %16 = getelementptr inbounds i8, ptr %15, i64 1
  %17 = load i8, ptr %16, align 1, !tbaa !43
  %18 = zext i8 %17 to i32
  %19 = shl i32 %18, 8
  %20 = or i32 %12, %19
  %21 = load ptr, ptr %2, align 8, !tbaa !67
  %22 = load ptr, ptr %21, align 8, !tbaa !13
  %23 = getelementptr inbounds i8, ptr %22, i64 -3
  %24 = getelementptr inbounds i8, ptr %23, i64 2
  %25 = load i8, ptr %24, align 1, !tbaa !43
  %26 = zext i8 %25 to i32
  %27 = or i32 %20, %26
  ret i32 %27
}

; Function Attrs: alwaysinline nounwind uwtable
define internal i32 @bytestream_get_be32(ptr noundef %0) #6 {
  %2 = alloca ptr, align 8
  store ptr %0, ptr %2, align 8, !tbaa !67
  %3 = load ptr, ptr %2, align 8, !tbaa !67
  %4 = load ptr, ptr %3, align 8, !tbaa !13
  %5 = getelementptr inbounds i8, ptr %4, i64 4
  store ptr %5, ptr %3, align 8, !tbaa !13
  %6 = load ptr, ptr %2, align 8, !tbaa !67
  %7 = load ptr, ptr %6, align 8, !tbaa !13
  %8 = getelementptr inbounds i8, ptr %7, i64 -4
  %9 = load i32, ptr %8, align 1, !tbaa !43
  %10 = call i32 @av_bswap32(i32 noundef %9) #11
  ret i32 %10
}

; Function Attrs: nounwind uwtable
define internal i32 @parse_packed_headers(ptr noundef %0, ptr noundef %1, ptr noundef %2, ptr noundef %3, ptr noundef %4) #0 {
  %6 = alloca i32, align 4
  %7 = alloca ptr, align 8
  %8 = alloca ptr, align 8
  %9 = alloca ptr, align 8
  %10 = alloca ptr, align 8
  %11 = alloca ptr, align 8
  %12 = alloca i32, align 4
  %13 = alloca i32, align 4
  %14 = alloca i32, align 4
  %15 = alloca i32, align 4
  %16 = alloca i32, align 4
  %17 = alloca i32, align 4
  %18 = alloca i32, align 4
  %19 = alloca ptr, align 8
  %20 = alloca i32, align 4
  store ptr %0, ptr %7, align 8, !tbaa !4
  store ptr %1, ptr %8, align 8, !tbaa !13
  store ptr %2, ptr %9, align 8, !tbaa !13
  store ptr %3, ptr %10, align 8, !tbaa !58
  store ptr %4, ptr %11, align 8, !tbaa !11
  call void @llvm.lifetime.start.p0(i64 4, ptr %12) #10
  call void @llvm.lifetime.start.p0(i64 4, ptr %13) #10
  call void @llvm.lifetime.start.p0(i64 4, ptr %14) #10
  call void @llvm.lifetime.start.p0(i64 4, ptr %15) #10
  call void @llvm.lifetime.start.p0(i64 4, ptr %16) #10
  call void @llvm.lifetime.start.p0(i64 4, ptr %17) #10
  call void @llvm.lifetime.start.p0(i64 4, ptr %18) #10
  call void @llvm.lifetime.start.p0(i64 8, ptr %19) #10
  %21 = load ptr, ptr %9, align 8, !tbaa !13
  %22 = load ptr, ptr %8, align 8, !tbaa !13
  %23 = ptrtoint ptr %21 to i64
  %24 = ptrtoint ptr %22 to i64
  %25 = sub i64 %23, %24
  %26 = icmp slt i64 %25, 9
  br i1 %26, label %27, label %34

27:                                               ; preds = %5
  %28 = load ptr, ptr %7, align 8, !tbaa !4
  %29 = load ptr, ptr %9, align 8, !tbaa !13
  %30 = load ptr, ptr %8, align 8, !tbaa !13
  %31 = ptrtoint ptr %29 to i64
  %32 = ptrtoint ptr %30 to i64
  %33 = sub i64 %31, %32
  call void (ptr, i32, ptr, ...) @av_log(ptr noundef %28, i32 noundef 16, ptr noundef @.str.15, i64 noundef %33)
  store i32 -1094995529, ptr %6, align 4
  store i32 1, ptr %20, align 4
  br label %141

34:                                               ; preds = %5
  %35 = call i32 @bytestream_get_be32(ptr noundef %8)
  store i32 %35, ptr %12, align 4, !tbaa !9
  %36 = call i32 @bytestream_get_be24(ptr noundef %8)
  %37 = load ptr, ptr %11, align 8, !tbaa !11
  %38 = getelementptr inbounds nuw %struct.PayloadContext, ptr %37, i32 0, i32 0
  store i32 %36, ptr %38, align 8, !tbaa !53
  %39 = call i32 @bytestream_get_be16(ptr noundef %8)
  store i32 %39, ptr %14, align 4, !tbaa !9
  %40 = load ptr, ptr %9, align 8, !tbaa !13
  %41 = call i32 @get_base128(ptr noundef %8, ptr noundef %40)
  store i32 %41, ptr %13, align 4, !tbaa !9
  %42 = load ptr, ptr %9, align 8, !tbaa !13
  %43 = call i32 @get_base128(ptr noundef %8, ptr noundef %42)
  store i32 %43, ptr %15, align 4, !tbaa !9
  %44 = load ptr, ptr %9, align 8, !tbaa !13
  %45 = call i32 @get_base128(ptr noundef %8, ptr noundef %44)
  store i32 %45, ptr %16, align 4, !tbaa !9
  %46 = load i32, ptr %12, align 4, !tbaa !9
  %47 = icmp ne i32 %46, 1
  br i1 %47, label %51, label %48

48:                                               ; preds = %34
  %49 = load i32, ptr %13, align 4, !tbaa !9
  %50 = icmp ugt i32 %49, 3
  br i1 %50, label %51, label %55

51:                                               ; preds = %48, %34
  %52 = load ptr, ptr %7, align 8, !tbaa !4
  %53 = load i32, ptr %12, align 4, !tbaa !9
  %54 = load i32, ptr %13, align 4, !tbaa !9
  call void (ptr, ptr, ...) @avpriv_report_missing_feature(ptr noundef %52, ptr noundef @.str.16, i32 noundef %53, i32 noundef %54)
  store i32 -1163346256, ptr %6, align 4
  store i32 1, ptr %20, align 4
  br label %141

55:                                               ; preds = %48
  %56 = load ptr, ptr %9, align 8, !tbaa !13
  %57 = load ptr, ptr %8, align 8, !tbaa !13
  %58 = ptrtoint ptr %56 to i64
  %59 = ptrtoint ptr %57 to i64
  %60 = sub i64 %58, %59
  %61 = load i32, ptr %14, align 4, !tbaa !9
  %62 = zext i32 %61 to i64
  %63 = icmp ne i64 %60, %62
  br i1 %63, label %74, label %64

64:                                               ; preds = %55
  %65 = load i32, ptr %15, align 4, !tbaa !9
  %66 = load i32, ptr %14, align 4, !tbaa !9
  %67 = icmp ugt i32 %65, %66
  br i1 %67, label %74, label %68

68:                                               ; preds = %64
  %69 = load i32, ptr %16, align 4, !tbaa !9
  %70 = load i32, ptr %14, align 4, !tbaa !9
  %71 = load i32, ptr %15, align 4, !tbaa !9
  %72 = sub i32 %70, %71
  %73 = icmp ugt i32 %69, %72
  br i1 %73, label %74, label %84

74:                                               ; preds = %68, %64, %55
  %75 = load ptr, ptr %7, align 8, !tbaa !4
  %76 = load i32, ptr %15, align 4, !tbaa !9
  %77 = load i32, ptr %16, align 4, !tbaa !9
  %78 = load ptr, ptr %9, align 8, !tbaa !13
  %79 = load ptr, ptr %8, align 8, !tbaa !13
  %80 = ptrtoint ptr %78 to i64
  %81 = ptrtoint ptr %79 to i64
  %82 = sub i64 %80, %81
  %83 = load i32, ptr %14, align 4, !tbaa !9
  call void (ptr, i32, ptr, ...) @av_log(ptr noundef %75, i32 noundef 16, ptr noundef @.str.17, i32 noundef %76, i32 noundef %77, i64 noundef %82, i32 noundef %83)
  store i32 -1094995529, ptr %6, align 4
  store i32 1, ptr %20, align 4
  br label %141

84:                                               ; preds = %68
  %85 = load i32, ptr %14, align 4, !tbaa !9
  %86 = load i32, ptr %14, align 4, !tbaa !9
  %87 = udiv i32 %86, 255
  %88 = add i32 %85, %87
  %89 = add i32 %88, 3
  %90 = add i32 %89, 64
  store i32 %90, ptr %17, align 4, !tbaa !9
  %91 = load ptr, ptr %10, align 8, !tbaa !58
  %92 = load i32, ptr %17, align 4, !tbaa !9
  %93 = call i32 @ff_alloc_extradata(ptr noundef %91, i32 noundef %92)
  store i32 %93, ptr %18, align 4, !tbaa !9
  %94 = icmp slt i32 %93, 0
  br i1 %94, label %95, label %98

95:                                               ; preds = %84
  %96 = load ptr, ptr %7, align 8, !tbaa !4
  call void (ptr, i32, ptr, ...) @av_log(ptr noundef %96, i32 noundef 16, ptr noundef @.str.18)
  %97 = load i32, ptr %18, align 4, !tbaa !9
  store i32 %97, ptr %6, align 4
  store i32 1, ptr %20, align 4
  br label %141

98:                                               ; preds = %84
  %99 = load ptr, ptr %10, align 8, !tbaa !58
  %100 = getelementptr inbounds nuw %struct.AVCodecParameters, ptr %99, i32 0, i32 3
  %101 = load ptr, ptr %100, align 8, !tbaa !65
  store ptr %101, ptr %19, align 8, !tbaa !13
  %102 = load ptr, ptr %19, align 8, !tbaa !13
  %103 = getelementptr inbounds nuw i8, ptr %102, i32 1
  store ptr %103, ptr %19, align 8, !tbaa !13
  store i8 2, ptr %102, align 1, !tbaa !43
  %104 = load ptr, ptr %19, align 8, !tbaa !13
  %105 = load i32, ptr %15, align 4, !tbaa !9
  %106 = call i32 @av_xiphlacing(ptr noundef %104, i32 noundef %105)
  %107 = load ptr, ptr %19, align 8, !tbaa !13
  %108 = zext i32 %106 to i64
  %109 = getelementptr inbounds nuw i8, ptr %107, i64 %108
  store ptr %109, ptr %19, align 8, !tbaa !13
  %110 = load ptr, ptr %19, align 8, !tbaa !13
  %111 = load i32, ptr %16, align 4, !tbaa !9
  %112 = call i32 @av_xiphlacing(ptr noundef %110, i32 noundef %111)
  %113 = load ptr, ptr %19, align 8, !tbaa !13
  %114 = zext i32 %112 to i64
  %115 = getelementptr inbounds nuw i8, ptr %113, i64 %114
  store ptr %115, ptr %19, align 8, !tbaa !13
  %116 = load ptr, ptr %19, align 8, !tbaa !13
  %117 = load ptr, ptr %8, align 8, !tbaa !13
  %118 = load i32, ptr %14, align 4, !tbaa !9
  %119 = zext i32 %118 to i64
  call void @llvm.memcpy.p0.p0.i64(ptr align 1 %116, ptr align 1 %117, i64 %119, i1 false)
  %120 = load i32, ptr %14, align 4, !tbaa !9
  %121 = load ptr, ptr %19, align 8, !tbaa !13
  %122 = zext i32 %120 to i64
  %123 = getelementptr inbounds nuw i8, ptr %121, i64 %122
  store ptr %123, ptr %19, align 8, !tbaa !13
  %124 = load ptr, ptr %19, align 8, !tbaa !13
  %125 = load ptr, ptr %10, align 8, !tbaa !58
  %126 = getelementptr inbounds nuw %struct.AVCodecParameters, ptr %125, i32 0, i32 3
  %127 = load ptr, ptr %126, align 8, !tbaa !65
  %128 = ptrtoint ptr %124 to i64
  %129 = ptrtoint ptr %127 to i64
  %130 = sub i64 %128, %129
  %131 = trunc i64 %130 to i32
  %132 = load ptr, ptr %10, align 8, !tbaa !58
  %133 = getelementptr inbounds nuw %struct.AVCodecParameters, ptr %132, i32 0, i32 4
  store i32 %131, ptr %133, align 8, !tbaa !66
  %134 = load ptr, ptr %19, align 8, !tbaa !13
  %135 = load i32, ptr %17, align 4, !tbaa !9
  %136 = load ptr, ptr %10, align 8, !tbaa !58
  %137 = getelementptr inbounds nuw %struct.AVCodecParameters, ptr %136, i32 0, i32 4
  %138 = load i32, ptr %137, align 8, !tbaa !66
  %139 = sub i32 %135, %138
  %140 = zext i32 %139 to i64
  call void @llvm.memset.p0.i64(ptr align 1 %134, i8 0, i64 %140, i1 false)
  store i32 0, ptr %6, align 4
  store i32 1, ptr %20, align 4
  br label %141

141:                                              ; preds = %98, %95, %74, %51, %27
  call void @llvm.lifetime.end.p0(i64 8, ptr %19) #10
  call void @llvm.lifetime.end.p0(i64 4, ptr %18) #10
  call void @llvm.lifetime.end.p0(i64 4, ptr %17) #10
  call void @llvm.lifetime.end.p0(i64 4, ptr %16) #10
  call void @llvm.lifetime.end.p0(i64 4, ptr %15) #10
  call void @llvm.lifetime.end.p0(i64 4, ptr %14) #10
  call void @llvm.lifetime.end.p0(i64 4, ptr %13) #10
  call void @llvm.lifetime.end.p0(i64 4, ptr %12) #10
  %142 = load i32, ptr %6, align 4
  ret i32 %142
}