; Function Attrs: nounwind uwtable
define internal fastcc range(i32 -2147483648, 1) i32 @parse_packed_headers(ptr noundef %0, ptr noundef nonnull %1, ptr noundef nonnull %2, ptr noundef %3, ptr noundef writeonly captures(none) %4) unnamed_addr #0 {
  %6 = ptrtoint ptr %2 to i64
  %7 = ptrtoint ptr %1 to i64
  %8 = sub i64 %6, %7
  %9 = icmp slt i64 %8, 9
  br i1 %9, label %10, label %11

10:                                               ; preds = %5
  tail call void (ptr, i32, ptr, ...) @av_log(ptr noundef %0, i32 noundef 16, ptr noundef nonnull @.str.15, i64 noundef %8) #8
  br label %98

11:                                               ; preds = %5
  %12 = getelementptr inbounds nuw i8, ptr %1, i64 4
  %13 = load i32, ptr %1, align 1, !tbaa !32
  %14 = tail call i32 @llvm.bswap.i32(i32 %13)
  %15 = getelementptr inbounds nuw i8, ptr %1, i64 7
  %16 = load i8, ptr %12, align 1, !tbaa !32
  %17 = zext i8 %16 to i32
  %18 = shl nuw nsw i32 %17, 16
  %19 = getelementptr inbounds nuw i8, ptr %1, i64 5
  %20 = load i8, ptr %19, align 1, !tbaa !32
  %21 = zext i8 %20 to i32
  %22 = shl nuw nsw i32 %21, 8
  %23 = or disjoint i32 %22, %18
  %24 = getelementptr inbounds nuw i8, ptr %1, i64 6
  %25 = load i8, ptr %24, align 1, !tbaa !32
  %26 = zext i8 %25 to i32
  %27 = or disjoint i32 %23, %26
  store i32 %27, ptr %4, align 8, !tbaa !42
  %28 = getelementptr inbounds nuw i8, ptr %1, i64 9
  %29 = load i16, ptr %15, align 1, !tbaa !32
  %30 = tail call i16 @llvm.bswap.i16(i16 %29)
  %31 = zext i16 %30 to i32
  %32 = icmp ult ptr %28, %2
  br i1 %32, label %.lr.ph.i.preheader, label %get_base128.exit

.lr.ph.i.preheader:                               ; preds = %11
  %scevgep = getelementptr i8, ptr %1, i64 %8
  br label %.lr.ph.i

.lr.ph.i:                                         ; preds = %.lr.ph.i.preheader, %40
  %.013.i = phi i32 [ %38, %40 ], [ 0, %.lr.ph.i.preheader ]
  %33 = phi ptr [ %39, %40 ], [ %28, %.lr.ph.i.preheader ]
  %34 = shl i32 %.013.i, 7
  %35 = load i8, ptr %33, align 1, !tbaa !32
  %36 = and i8 %35, 127
  %37 = zext nneg i8 %36 to i32
  %38 = or disjoint i32 %34, %37
  %.not.i = icmp sgt i8 %35, -1
  %39 = getelementptr inbounds nuw i8, ptr %33, i64 1
  br i1 %.not.i, label %get_base128.exit, label %40

40:                                               ; preds = %.lr.ph.i
  %exitcond.not.i = icmp eq ptr %39, %2
  br i1 %exitcond.not.i, label %get_base128.exit, label %.lr.ph.i, !llvm.loop !53

get_base128.exit:                                 ; preds = %40, %.lr.ph.i, %11
  %.077 = phi ptr [ %28, %11 ], [ %scevgep, %40 ], [ %39, %.lr.ph.i ]
  %.09.i = phi i32 [ 0, %11 ], [ 0, %40 ], [ %38, %.lr.ph.i ]
  %41 = icmp ult ptr %.077, %2
  br i1 %41, label %.lr.ph.i60.preheader, label %get_base128.exit64

.lr.ph.i60.preheader:                             ; preds = %get_base128.exit
  %.077106 = ptrtoint ptr %.077 to i64
  %42 = sub i64 %6, %.077106
  %scevgep107 = getelementptr i8, ptr %.077, i64 %42
  br label %.lr.ph.i60

.lr.ph.i60:                                       ; preds = %.lr.ph.i60.preheader, %50
  %.013.i61 = phi i32 [ %48, %50 ], [ 0, %.lr.ph.i60.preheader ]
  %43 = phi ptr [ %49, %50 ], [ %.077, %.lr.ph.i60.preheader ]
  %44 = shl i32 %.013.i61, 7
  %45 = load i8, ptr %43, align 1, !tbaa !32
  %46 = and i8 %45, 127
  %47 = zext nneg i8 %46 to i32
  %48 = or disjoint i32 %44, %47
  %.not.i62 = icmp sgt i8 %45, -1
  %49 = getelementptr inbounds nuw i8, ptr %43, i64 1
  br i1 %.not.i62, label %get_base128.exit64, label %50

50:                                               ; preds = %.lr.ph.i60
  %exitcond.not.i63 = icmp eq ptr %49, %2
  br i1 %exitcond.not.i63, label %get_base128.exit64, label %.lr.ph.i60, !llvm.loop !53

get_base128.exit64:                               ; preds = %50, %.lr.ph.i60, %get_base128.exit
  %.1 = phi ptr [ %.077, %get_base128.exit ], [ %scevgep107, %50 ], [ %49, %.lr.ph.i60 ]
  %.09.i59 = phi i32 [ 0, %get_base128.exit ], [ 0, %50 ], [ %48, %.lr.ph.i60 ]
  %51 = icmp ult ptr %.1, %2
  br i1 %51, label %.lr.ph.i67.preheader, label %get_base128.exit71

.lr.ph.i67.preheader:                             ; preds = %get_base128.exit64
  %.1108 = ptrtoint ptr %.1 to i64
  %52 = sub i64 %6, %.1108
  %scevgep109 = getelementptr i8, ptr %.1, i64 %52
  br label %.lr.ph.i67

.lr.ph.i67:                                       ; preds = %.lr.ph.i67.preheader, %60
  %.013.i68 = phi i32 [ %58, %60 ], [ 0, %.lr.ph.i67.preheader ]
  %53 = phi ptr [ %59, %60 ], [ %.1, %.lr.ph.i67.preheader ]
  %54 = shl i32 %.013.i68, 7
  %55 = load i8, ptr %53, align 1, !tbaa !32
  %56 = and i8 %55, 127
  %57 = zext nneg i8 %56 to i32
  %58 = or disjoint i32 %54, %57
  %.not.i69 = icmp sgt i8 %55, -1
  %59 = getelementptr inbounds nuw i8, ptr %53, i64 1
  br i1 %.not.i69, label %get_base128.exit71, label %60

60:                                               ; preds = %.lr.ph.i67
  %exitcond.not.i70 = icmp eq ptr %59, %2
  br i1 %exitcond.not.i70, label %get_base128.exit71, label %.lr.ph.i67, !llvm.loop !53

get_base128.exit71:                               ; preds = %60, %.lr.ph.i67, %get_base128.exit64
  %.2 = phi ptr [ %.1, %get_base128.exit64 ], [ %scevgep109, %60 ], [ %59, %.lr.ph.i67 ]
  %.09.i66 = phi i32 [ 0, %get_base128.exit64 ], [ 0, %60 ], [ %58, %.lr.ph.i67 ]
  %61 = icmp ne i32 %13, 16777216
  %62 = icmp ugt i32 %.09.i, 3
  %or.cond = select i1 %61, i1 true, i1 %62
  br i1 %or.cond, label %63, label %64

63:                                               ; preds = %get_base128.exit71
  tail call void (ptr, ptr, ...) @avpriv_report_missing_feature(ptr noundef %0, ptr noundef nonnull @.str.16, i32 noundef %14, i32 noundef %.09.i) #8
  br label %98

64:                                               ; preds = %get_base128.exit71
  %65 = ptrtoint ptr %.2 to i64
  %66 = sub i64 %6, %65
  %67 = zext i16 %30 to i64
  %.not = icmp ne i64 %66, %67
  %68 = icmp ugt i32 %.09.i59, %31
  %or.cond55 = select i1 %.not, i1 true, i1 %68
  %69 = sub nuw nsw i32 %31, %.09.i59
  %70 = icmp ugt i32 %.09.i66, %69
  %or.cond57 = select i1 %or.cond55, i1 true, i1 %70
  br i1 %or.cond57, label %71, label %72

71:                                               ; preds = %64
  tail call void (ptr, i32, ptr, ...) @av_log(ptr noundef %0, i32 noundef 16, ptr noundef nonnull @.str.17, i32 noundef %.09.i59, i32 noundef %.09.i66, i64 noundef %66, i32 noundef %31) #8
  br label %98

72:                                               ; preds = %64
  %73 = udiv i32 %31, 255
  %74 = add nuw nsw i32 %31, 67
  %75 = add nuw nsw i32 %74, %73
  %76 = tail call i32 @ff_alloc_extradata(ptr noundef %3, i32 noundef %75) #8
  %77 = icmp slt i32 %76, 0
  br i1 %77, label %78, label %79

78:                                               ; preds = %72
  tail call void (ptr, i32, ptr, ...) @av_log(ptr noundef %0, i32 noundef 16, ptr noundef nonnull @.str.18) #8
  br label %98

79:                                               ; preds = %72
  %80 = getelementptr inbounds nuw i8, ptr %3, i64 16
  %81 = load ptr, ptr %80, align 8, !tbaa !55
  %82 = getelementptr inbounds nuw i8, ptr %81, i64 1
  store i8 2, ptr %81, align 1, !tbaa !32
  %83 = tail call i32 @av_xiphlacing(ptr noundef nonnull %82, i32 noundef %.09.i59) #8
  %84 = zext i32 %83 to i64
  %85 = getelementptr inbounds nuw i8, ptr %82, i64 %84
  %86 = tail call i32 @av_xiphlacing(ptr noundef nonnull %85, i32 noundef %.09.i66) #8
  %87 = zext i32 %86 to i64
  %88 = getelementptr inbounds nuw i8, ptr %85, i64 %87
  tail call void @llvm.memcpy.p0.p0.i64(ptr nonnull align 1 %88, ptr nonnull align 1 %.2, i64 %66, i1 false)
  %89 = getelementptr inbounds nuw i8, ptr %88, i64 %66
  %90 = load ptr, ptr %80, align 8, !tbaa !55
  %91 = ptrtoint ptr %89 to i64
  %92 = ptrtoint ptr %90 to i64
  %93 = sub i64 %91, %92
  %94 = trunc i64 %93 to i32
  %95 = getelementptr inbounds nuw i8, ptr %3, i64 24
  store i32 %94, ptr %95, align 8, !tbaa !56
  %96 = sub i32 %75, %94
  %97 = zext i32 %96 to i64
  tail call void @llvm.memset.p0.i64(ptr nonnull align 1 %89, i8 0, i64 %97, i1 false)
  br label %98

98:                                               ; preds = %79, %78, %71, %63, %10
  %.0 = phi i32 [ -1094995529, %10 ], [ -1163346256, %63 ], [ -1094995529, %71 ], [ %76, %78 ], [ 0, %79 ]
  ret i32 %.0
}